; Function Attrs: nounwind uwtable
define ptr @l_Lean_Meta_mkAppOptM(ptr noundef %0, ptr noundef %1, ptr noundef %2, ptr noundef %3, ptr noundef %4, ptr noundef %5, ptr noundef %6) local_unnamed_addr #0 {
  %8 = ptrtoint ptr %1 to i64
  %9 = and i64 %8, 1
  %.not = icmp eq i64 %9, 0
  br i1 %.not, label %10, label %lean_inc.exit19

10:                                               ; preds = %7
  %.val.i = load i32, ptr %1, align 4, !tbaa !4
  %11 = icmp sgt i32 %.val.i, 0
  br i1 %11, label %12, label %14, !prof !9

12:                                               ; preds = %10
  %13 = add nuw i32 %.val.i, 1
  store i32 %13, ptr %1, align 4, !tbaa !4
  br label %lean_inc.exit19

14:                                               ; preds = %10
  %.not.i = icmp eq i32 %.val.i, 0
  br i1 %.not.i, label %lean_inc.exit19, label %15

15:                                               ; preds = %14
  tail call void @lean_inc_ref_cold(ptr noundef nonnull %1) #5
  br label %lean_inc.exit19

lean_inc.exit19:                                  ; preds = %15, %14, %12, %7
  %16 = ptrtoint ptr %0 to i64
  %17 = and i64 %16, 1
  %.not24 = icmp eq i64 %17, 0
  br i1 %.not24, label %18, label %lean_inc.exit

18:                                               ; preds = %lean_inc.exit19
  %.val.i20 = load i32, ptr %0, align 4, !tbaa !4
  %19 = icmp sgt i32 %.val.i20, 0
  br i1 %19, label %20, label %22, !prof !9

20:                                               ; preds = %18
  %21 = add nuw i32 %.val.i20, 1
  store i32 %21, ptr %0, align 4, !tbaa !4
  br label %lean_inc.exit

22:                                               ; preds = %18
  %.not.i21 = icmp eq i32 %.val.i20, 0
  br i1 %.not.i21, label %lean_inc.exit, label %23

23:                                               ; preds = %22
  tail call void @lean_inc_ref_cold(ptr noundef nonnull %0) #5
  br label %lean_inc.exit

lean_inc.exit:                                    ; preds = %23, %22, %20, %lean_inc.exit19
  tail call void @lean_inc_heartbeat() #5
  %24 = tail call noalias ptr @mi_malloc_small(i64 noundef 40) #5
  %25 = icmp eq ptr %24, null
  br i1 %25, label %26, label %lean_alloc_closure.exit

26:                                               ; preds = %lean_inc.exit
  tail call void @lean_internal_panic_out_of_memory() #6
  unreachable

lean_alloc_closure.exit:                          ; preds = %lean_inc.exit
  %27 = getelementptr inbounds nuw i8, ptr %24, i64 4
  store i32 1, ptr %24, align 4, !tbaa !4
  store i32 -184549336, ptr %27, align 4
  %28 = getelementptr inbounds nuw i8, ptr %24, i64 8
  store ptr @l_Lean_Meta_mkAppOptM___lambda__1___boxed, ptr %28, align 8, !tbaa !10
  %29 = getelementptr inbounds nuw i8, ptr %24, i64 16
  store i16 7, ptr %29, align 8, !tbaa !15
  %30 = getelementptr inbounds nuw i8, ptr %24, i64 18
  store i16 2, ptr %30, align 2, !tbaa !15
  %31 = getelementptr inbounds nuw i8, ptr %24, i64 24
  store ptr %0, ptr %31, align 8, !tbaa !10
  %32 = getelementptr inbounds nuw i8, ptr %24, i64 32
  store ptr %1, ptr %32, align 8, !tbaa !10
  tail call void @lean_inc_heartbeat() #5
  %33 = tail call noalias ptr @mi_malloc_small(i64 noundef 40) #5
  %34 = icmp eq ptr %33, null
  br i1 %34, label %35, label %lean_alloc_closure.exit23

35:                                               ; preds = %lean_alloc_closure.exit
  tail call void @lean_internal_panic_out_of_memory() #6
  unreachable

lean_alloc_closure.exit23:                        ; preds = %lean_alloc_closure.exit
  %36 = getelementptr inbounds nuw i8, ptr %33, i64 4
  store i32 1, ptr %33, align 4, !tbaa !4
  store i32 -184549336, ptr %36, align 4
  %37 = getelementptr inbounds nuw i8, ptr %33, i64 8
  store ptr @l_Lean_Meta_withNewMCtxDepth___at_Lean_Meta_matchesInstance___spec__1___rarg___boxed, ptr %37, align 8, !tbaa !10
  %38 = getelementptr inbounds nuw i8, ptr %33, i64 16
  store i16 7, ptr %38, align 8, !tbaa !15
  %39 = getelementptr inbounds nuw i8, ptr %33, i64 18
  store i16 2, ptr %39, align 2, !tbaa !15
  %40 = getelementptr inbounds nuw i8, ptr %33, i64 24
  store ptr %24, ptr %40, align 8, !tbaa !10
  %41 = getelementptr inbounds nuw i8, ptr %33, i64 32
  store ptr inttoptr (i64 1 to ptr), ptr %41, align 8, !tbaa !10
  %42 = tail call ptr @l___private_Lean_Meta_AppBuilder_0__Lean_Meta_withAppBuilderTrace___at_Lean_Meta_mkAppOptM___spec__1(ptr noundef %0, ptr noundef %1, ptr noundef nonnull %33, ptr noundef %2, ptr noundef %3, ptr noundef %4, ptr noundef %5, ptr noundef %6)
  ret ptr %42
}